(lp0
S'poi'
p1
aS'salary'
p2
aS'bonus'
p3
aS'exercised_stock_options'
p4
aS'to_messages'
p5
aS'from_poi_to_this_person'
p6
aS'from_messages'
p7
aS'from_this_person_to_poi'
p8
aS'bonus_salary_ratio'
p9
aS'from_this_person_to_poi_fraction'
p10
ag6
a.